target datalayout = "e-m:e-p270:32:32-p271:32:32-p272:64:64-i64:64-i128:128-f80:128-n8:16:32:64-S128"
target triple = "x86_64-pc-linux-gnu"

%struct.ident_t = type { i32, i32, i32, i32, ptr }
%"class.open3d::core::Indexer" = type <{ i64, i64, [5 x %"struct.open3d::core::TensorRef"], [2 x %"struct.open3d::core::TensorRef"], [5 x i8], [2 x i8], i8, [5 x i64], [5 x i64], i64, i8, i8, [6 x i8] }>
%"struct.open3d::core::TensorRef" = type { ptr, i64, i64, [5 x i64], [5 x i64] }
%class.anon.642 = type { ptr, ptr }

@1 = private unnamed_addr constant %struct.ident_t { i32 0, i32 514, i32 0, i32 22, ptr @0 }, align 8

; Function Attrs: mustprogress nounwind ssp uwtable
define linkonce_odr hidden noundef ptr @_ZNK6open3d4core7Indexer18GetWorkloadDataPtrIaEEPT_RKNS0_9TensorRefEbl(ptr noundef nonnull align 8 dereferenceable(842) %0, ptr noundef nonnull align 8 dereferenceable(104) %1, i1 noundef zeroext %2, i64 noundef %3) #5 comdat align 2 {
  %5 = alloca ptr, align 8
  %6 = alloca ptr, align 8
  %7 = alloca ptr, align 8
  %8 = alloca i8, align 1
  %9 = alloca i64, align 8
  %10 = alloca i64, align 8
  %11 = alloca i64, align 8
  store ptr %0, ptr %6, align 8, !tbaa !20
  store ptr %1, ptr %7, align 8, !tbaa !936
  %12 = zext i1 %2 to i8
  store i8 %12, ptr %8, align 1, !tbaa !76
  store i64 %3, ptr %9, align 8, !tbaa !11
  %13 = load ptr, ptr %6, align 8
  %14 = load i64, ptr %9, align 8, !tbaa !11
  %15 = icmp slt i64 %14, 0
  br i1 %15, label %16, label %17

16:                                               ; preds = %4
  store ptr null, ptr %5, align 8
  br label %63

17:                                               ; preds = %4
  %18 = load i8, ptr %8, align 1, !tbaa !76, !range !130, !noundef !131
  %19 = trunc i8 %18 to i1
  br i1 %19, label %20, label %26

20:                                               ; preds = %17
  %21 = load ptr, ptr %7, align 8, !tbaa !936
  %22 = getelementptr inbounds nuw %"struct.open3d::core::TensorRef", ptr %21, i32 0, i32 0
  %23 = load ptr, ptr %22, align 8, !tbaa !938
  %24 = load i64, ptr %9, align 8, !tbaa !11
  %25 = getelementptr inbounds i8, ptr %23, i64 %24
  store ptr %25, ptr %5, align 8
  br label %63

26:                                               ; preds = %17
  call void @llvm.lifetime.start.p0(i64 8, ptr %10) #25
  store i64 0, ptr %10, align 8, !tbaa !11
  call void @llvm.lifetime.start.p0(i64 8, ptr %11) #25
  store i64 0, ptr %11, align 8, !tbaa !11
  br label %27

27:                                               ; preds = %54, %26
  %28 = load i64, ptr %11, align 8, !tbaa !11
  %29 = getelementptr inbounds nuw %"class.open3d::core::Indexer", ptr %13, i32 0, i32 9
  %30 = load i64, ptr %29, align 8, !tbaa !941
  %31 = icmp slt i64 %28, %30
  br i1 %31, label %33, label %32

32:                                               ; preds = %27
  call void @llvm.lifetime.end.p0(i64 8, ptr %11) #25
  br label %57

33:                                               ; preds = %27
  %34 = load i64, ptr %9, align 8, !tbaa !11
  %35 = getelementptr inbounds nuw %"class.open3d::core::Indexer", ptr %13, i32 0, i32 8
  %36 = load i64, ptr %11, align 8, !tbaa !11
  %37 = getelementptr inbounds [5 x i64], ptr %35, i64 0, i64 %36
  %38 = load i64, ptr %37, align 8, !tbaa !11
  %39 = sdiv i64 %34, %38
  %40 = load ptr, ptr %7, align 8, !tbaa !936
  %41 = getelementptr inbounds nuw %"struct.open3d::core::TensorRef", ptr %40, i32 0, i32 4
  %42 = load i64, ptr %11, align 8, !tbaa !11
  %43 = getelementptr inbounds [5 x i64], ptr %41, i64 0, i64 %42
  %44 = load i64, ptr %43, align 8, !tbaa !11
  %45 = mul nsw i64 %39, %44
  %46 = load i64, ptr %10, align 8, !tbaa !11
  %47 = add nsw i64 %46, %45
  store i64 %47, ptr %10, align 8, !tbaa !11
  %48 = load i64, ptr %9, align 8, !tbaa !11
  %49 = getelementptr inbounds nuw %"class.open3d::core::Indexer", ptr %13, i32 0, i32 8
  %50 = load i64, ptr %11, align 8, !tbaa !11
  %51 = getelementptr inbounds [5 x i64], ptr %49, i64 0, i64 %50
  %52 = load i64, ptr %51, align 8, !tbaa !11
  %53 = srem i64 %48, %52
  store i64 %53, ptr %9, align 8, !tbaa !11
  br label %54

54:                                               ; preds = %33
  %55 = load i64, ptr %11, align 8, !tbaa !11
  %56 = add nsw i64 %55, 1
  store i64 %56, ptr %11, align 8, !tbaa !11
  br label %27, !llvm.loop !993

57:                                               ; preds = %32
  %58 = load ptr, ptr %7, align 8, !tbaa !936
  %59 = getelementptr inbounds nuw %"struct.open3d::core::TensorRef", ptr %58, i32 0, i32 0
  %60 = load ptr, ptr %59, align 8, !tbaa !938
  %61 = load i64, ptr %10, align 8, !tbaa !11
  %62 = getelementptr inbounds i8, ptr %60, i64 %61
  store ptr %62, ptr %5, align 8
  call void @llvm.lifetime.end.p0(i64 8, ptr %10) #25
  br label %63

63:                                               ; preds = %57, %20, %16
  %64 = load ptr, ptr %5, align 8
  ret ptr %64
}

; Function Attrs: mustprogress ssp uwtable
define linkonce_odr hidden noundef ptr @_ZNK6open3d4core7Indexer12GetOutputPtrIaEEPT_l(ptr noundef nonnull align 8 dereferenceable(842) %0, i64 noundef %1) #0 comdat align 2 {
  %3 = alloca ptr, align 8
  %4 = alloca i64, align 8
  store ptr %0, ptr %3, align 8, !tbaa !20
  store i64 %1, ptr %4, align 8, !tbaa !11
  %5 = load ptr, ptr %3, align 8
  %6 = getelementptr inbounds nuw %"class.open3d::core::Indexer", ptr %5, i32 0, i32 3
  %7 = getelementptr inbounds [2 x %"struct.open3d::core::TensorRef"], ptr %6, i64 0, i64 0
  %8 = getelementptr inbounds nuw %"class.open3d::core::Indexer", ptr %5, i32 0, i32 5
  %9 = getelementptr inbounds [2 x i8], ptr %8, i64 0, i64 0
  %10 = load i8, ptr %9, align 1, !tbaa !76, !range !130, !noundef !131
  %11 = trunc i8 %10 to i1
  %12 = load i64, ptr %4, align 8, !tbaa !11
  %13 = call noundef ptr @_ZNK6open3d4core7Indexer18GetWorkloadDataPtrIaEEPT_RKNS0_9TensorRefEbl(ptr noundef nonnull align 8 dereferenceable(842) %5, ptr noundef nonnull align 8 dereferenceable(104) %7, i1 noundef zeroext %11, i64 noundef %12)
  ret ptr %13
}

; Function Attrs: mustprogress nounwind ssp uwtable
define linkonce_odr hidden noundef ptr @_ZNK6open3d4core7Indexer11GetInputPtrIaEEPT_ll(ptr noundef nonnull align 8 dereferenceable(842) %0, i64 noundef %1, i64 noundef %2) #5 comdat align 2 {
  %4 = alloca ptr, align 8
  %5 = alloca ptr, align 8
  %6 = alloca i64, align 8
  %7 = alloca i64, align 8
  store ptr %0, ptr %5, align 8, !tbaa !20
  store i64 %1, ptr %6, align 8, !tbaa !11
  store i64 %2, ptr %7, align 8, !tbaa !11
  %8 = load ptr, ptr %5, align 8
  %9 = load i64, ptr %6, align 8, !tbaa !11
  %10 = icmp slt i64 %9, 0
  br i1 %10, label %16, label %11

11:                                               ; preds = %3
  %12 = load i64, ptr %6, align 8, !tbaa !11
  %13 = getelementptr inbounds nuw %"class.open3d::core::Indexer", ptr %8, i32 0, i32 0
  %14 = load i64, ptr %13, align 8, !tbaa !934
  %15 = icmp sge i64 %12, %14
  br i1 %15, label %16, label %17

16:                                               ; preds = %11, %3
  store ptr null, ptr %4, align 8
  br label %28

17:                                               ; preds = %11
  %18 = getelementptr inbounds nuw %"class.open3d::core::Indexer", ptr %8, i32 0, i32 2
  %19 = load i64, ptr %6, align 8, !tbaa !11
  %20 = getelementptr inbounds [5 x %"struct.open3d::core::TensorRef"], ptr %18, i64 0, i64 %19
  %21 = getelementptr inbounds nuw %"class.open3d::core::Indexer", ptr %8, i32 0, i32 4
  %22 = load i64, ptr %6, align 8, !tbaa !11
  %23 = getelementptr inbounds [5 x i8], ptr %21, i64 0, i64 %22
  %24 = load i8, ptr %23, align 1, !tbaa !76, !range !130, !noundef !131
  %25 = trunc i8 %24 to i1
  %26 = load i64, ptr %7, align 8, !tbaa !11
  %27 = call noundef ptr @_ZNK6open3d4core7Indexer18GetWorkloadDataPtrIaEEPT_RKNS0_9TensorRefEbl(ptr noundef nonnull align 8 dereferenceable(842) %8, ptr noundef nonnull align 8 dereferenceable(104) %20, i1 noundef zeroext %25, i64 noundef %26)
  store ptr %27, ptr %4, align 8
  br label %28

28:                                               ; preds = %17, %16
  %29 = load ptr, ptr %4, align 8
  ret ptr %29
}

; Function Attrs: inlinehint mustprogress ssp uwtable
define internal void @"_ZZN6open3d4core6kernelL19LaunchUnaryEWKernelIaaFvPKvPvEZZZNS1_10UnaryEWCPUERKNS0_6TensorERS7_NS1_13UnaryEWOpCodeEENK3$_3clEvENKUlvE1_clEvEUlllE0_EEvRKNS0_7IndexerERKT1_RKT2_ENKUllE_clEl"(ptr noundef nonnull align 8 dereferenceable(16) %0, i64 noundef %1) #2 align 2 {
  %3 = alloca ptr, align 8
  %4 = alloca i64, align 8
  store ptr %0, ptr %3, align 8, !tbaa !49
  store i64 %1, ptr %4, align 8, !tbaa !11
  %5 = load ptr, ptr %3, align 8
  %6 = getelementptr inbounds nuw %class.anon.642, ptr %5, i32 0, i32 1
  %7 = load ptr, ptr %6, align 8, !tbaa !1947
  %8 = getelementptr inbounds nuw %class.anon.642, ptr %5, i32 0, i32 0
  %9 = load ptr, ptr %8, align 8, !tbaa !1949
  %10 = load i64, ptr %4, align 8, !tbaa !11
  %11 = call noundef ptr @_ZNK6open3d4core7Indexer11GetInputPtrIaEEPT_ll(ptr noundef nonnull align 8 dereferenceable(842) %9, i64 noundef 0, i64 noundef %10)
  %12 = getelementptr inbounds nuw %class.anon.642, ptr %5, i32 0, i32 0
  %13 = load ptr, ptr %12, align 8, !tbaa !1949
  %14 = load i64, ptr %4, align 8, !tbaa !11
  %15 = call noundef ptr @_ZNK6open3d4core7Indexer12GetOutputPtrIaEEPT_l(ptr noundef nonnull align 8 dereferenceable(842) %13, i64 noundef %14)
  call void %7(ptr noundef %11, ptr noundef %15)
  ret void
}

; Function Attrs: alwaysinline norecurse nounwind ssp uwtable
define internal void @"_ZN6open3d4core15ParallelForCPU_IZNS0_6kernelL19LaunchUnaryEWKernelIaaFvPKvPvEZZZNS2_10UnaryEWCPUERKNS0_6TensorERS8_NS2_13UnaryEWOpCodeEENK3$_3clEvENKUlvE1_clEvEUlllE0_EEvRKNS0_7IndexerERKT1_RKT2_EUllE_EEvRKNS0_6DeviceElRKT_.omp_outlined"(ptr noalias noundef %0, ptr noalias noundef %1, ptr noundef nonnull align 8 dereferenceable(8) %2, ptr noundef nonnull align 8 dereferenceable(16) %3) #24 personality ptr @__gxx_personality_v0 {
  %5 = alloca ptr, align 8
  %6 = alloca ptr, align 8
  %7 = alloca ptr, align 8
  %8 = alloca ptr, align 8
  %9 = alloca ptr, align 8
  %10 = alloca i64, align 8
  %11 = alloca i64, align 8
  %12 = alloca i64, align 8
  %13 = alloca i64, align 8
  %14 = alloca i64, align 8
  %15 = alloca i64, align 8
  %16 = alloca i64, align 8
  %17 = alloca i32, align 4
  %18 = alloca i64, align 8
  store ptr %0, ptr %5, align 8, !tbaa !240
  store ptr %1, ptr %6, align 8, !tbaa !240
  store ptr %2, ptr %7, align 8, !tbaa !15
  store ptr %3, ptr %8, align 8, !tbaa !49
  %19 = load ptr, ptr %7, align 8, !tbaa !15
  %20 = load ptr, ptr %8, align 8, !tbaa !49
  store ptr %20, ptr %9, align 8
  call void @llvm.lifetime.start.p0(i64 8, ptr %10) #25
  call void @llvm.lifetime.start.p0(i64 8, ptr %11) #25
  %21 = load i64, ptr %19, align 8, !tbaa !11
  store i64 %21, ptr %11, align 8, !tbaa !11
  call void @llvm.lifetime.start.p0(i64 8, ptr %12) #25
  %22 = load i64, ptr %11, align 8, !tbaa !11
  %23 = sub nsw i64 %22, 0
  %24 = sdiv i64 %23, 1
  %25 = sub nsw i64 %24, 1
  store i64 %25, ptr %12, align 8, !tbaa !11
  call void @llvm.lifetime.start.p0(i64 8, ptr %13) #25
  store i64 0, ptr %13, align 8, !tbaa !11
  call void @llvm.lifetime.end.p0(i64 8, ptr %13) #25
  %26 = load i64, ptr %11, align 8, !tbaa !11
  %27 = icmp slt i64 0, %26
  br i1 %27, label %28, label %62

28:                                               ; preds = %4
  call void @llvm.lifetime.start.p0(i64 8, ptr %14) #25
  store i64 0, ptr %14, align 8, !tbaa !11
  call void @llvm.lifetime.start.p0(i64 8, ptr %15) #25
  %29 = load i64, ptr %12, align 8, !tbaa !11
  store i64 %29, ptr %15, align 8, !tbaa !11
  call void @llvm.lifetime.start.p0(i64 8, ptr %16) #25
  store i64 1, ptr %16, align 8, !tbaa !11
  call void @llvm.lifetime.start.p0(i64 4, ptr %17) #25
  store i32 0, ptr %17, align 4, !tbaa !103
  call void @llvm.lifetime.start.p0(i64 8, ptr %18) #25
  %30 = load ptr, ptr %5, align 8
  %31 = load i32, ptr %30, align 4, !tbaa !103
  call void @__kmpc_for_static_init_8(ptr @1, i32 %31, i32 34, ptr %17, ptr %14, ptr %15, ptr %16, i64 1, i64 1)
  %32 = load i64, ptr %15, align 8, !tbaa !11
  %33 = load i64, ptr %12, align 8, !tbaa !11
  %34 = icmp sgt i64 %32, %33
  br i1 %34, label %35, label %37

35:                                               ; preds = %28
  %36 = load i64, ptr %12, align 8, !tbaa !11
  br label %39

37:                                               ; preds = %28
  %38 = load i64, ptr %15, align 8, !tbaa !11
  br label %39

39:                                               ; preds = %37, %35
  %40 = phi i64 [ %36, %35 ], [ %38, %37 ]
  store i64 %40, ptr %15, align 8, !tbaa !11
  %41 = load i64, ptr %14, align 8, !tbaa !11
  store i64 %41, ptr %10, align 8, !tbaa !11
  br label %42

42:                                               ; preds = %55, %39
  %43 = load i64, ptr %10, align 8, !tbaa !11
  %44 = load i64, ptr %15, align 8, !tbaa !11
  %45 = icmp sle i64 %43, %44
  br i1 %45, label %47, label %46

46:                                               ; preds = %42
  br label %58

47:                                               ; preds = %42
  %48 = load i64, ptr %10, align 8, !tbaa !11
  %49 = mul nsw i64 %48, 1
  %50 = add nsw i64 0, %49
  store i64 %50, ptr %18, align 8, !tbaa !11
  %51 = load ptr, ptr %9, align 8, !tbaa !49
  %52 = load i64, ptr %18, align 8, !tbaa !11
  invoke void @"_ZZN6open3d4core6kernelL19LaunchUnaryEWKernelIaaFvPKvPvEZZZNS1_10UnaryEWCPUERKNS0_6TensorERS7_NS1_13UnaryEWOpCodeEENK3$_3clEvENKUlvE1_clEvEUlllE0_EEvRKNS0_7IndexerERKT1_RKT2_ENKUllE_clEl"(ptr noundef nonnull align 8 dereferenceable(16) %51, i64 noundef %52)
          to label %53 unwind label %63

53:                                               ; preds = %47
  br label %54

54:                                               ; preds = %53
  br label %55

55:                                               ; preds = %54
  %56 = load i64, ptr %10, align 8, !tbaa !11
  %57 = add nsw i64 %56, 1
  store i64 %57, ptr %10, align 8, !tbaa !11
  br label %42

58:                                               ; preds = %46
  br label %59

59:                                               ; preds = %58
  %60 = load ptr, ptr %5, align 8
  %61 = load i32, ptr %60, align 4, !tbaa !103
  call void @__kmpc_for_static_fini(ptr @1, i32 %61)
  call void @llvm.lifetime.end.p0(i64 8, ptr %18) #25
  call void @llvm.lifetime.end.p0(i64 4, ptr %17) #25
  call void @llvm.lifetime.end.p0(i64 8, ptr %16) #25
  call void @llvm.lifetime.end.p0(i64 8, ptr %15) #25
  call void @llvm.lifetime.end.p0(i64 8, ptr %14) #25
  br label %62

62:                                               ; preds = %59, %4
  call void @llvm.lifetime.end.p0(i64 8, ptr %12) #25
  call void @llvm.lifetime.end.p0(i64 8, ptr %11) #25
  call void @llvm.lifetime.end.p0(i64 8, ptr %10) #25
  ret void

63:                                               ; preds = %47
  %64 = landingpad { ptr, i32 }
          catch ptr null
  %65 = extractvalue { ptr, i32 } %64, 0
  call void @__clang_call_terminate(ptr %65) #29
  unreachable
}